; Function Attrs: mustprogress nofree norecurse nosync nounwind willreturn memory(argmem: readwrite) uwtable
define void @_ZN6marisa8grimoire2io6Mapper4swapERS2_(ptr noundef nonnull align 8 captures(none) dereferenceable(36) %0, ptr noundef nonnull align 8 captures(none) dereferenceable(36) %1) local_unnamed_addr #9 align 2 {
  %3 = load ptr, ptr %0, align 8, !tbaa !23
  %4 = load ptr, ptr %1, align 8, !tbaa !23
  store ptr %4, ptr %0, align 8, !tbaa !23
  store ptr %3, ptr %1, align 8, !tbaa !23
  %5 = getelementptr inbounds nuw i8, ptr %0, i64 16
  %6 = getelementptr inbounds nuw i8, ptr %1, i64 16
  %7 = load i64, ptr %5, align 8, !tbaa !24
  %8 = load i64, ptr %6, align 8, !tbaa !24
  store i64 %8, ptr %5, align 8, !tbaa !24
  store i64 %7, ptr %6, align 8, !tbaa !24
  %9 = getelementptr inbounds nuw i8, ptr %0, i64 8
  %10 = getelementptr inbounds nuw i8, ptr %1, i64 8
  %11 = load ptr, ptr %9, align 8, !tbaa !23
  %12 = load ptr, ptr %10, align 8, !tbaa !23
  store ptr %12, ptr %9, align 8, !tbaa !23
  store ptr %11, ptr %10, align 8, !tbaa !23
  %13 = getelementptr inbounds nuw i8, ptr %0, i64 24
  %14 = getelementptr inbounds nuw i8, ptr %1, i64 24
  %15 = load i64, ptr %13, align 8, !tbaa !24
  %16 = load i64, ptr %14, align 8, !tbaa !24
  store i64 %16, ptr %13, align 8, !tbaa !24
  store i64 %15, ptr %14, align 8, !tbaa !24
  %17 = getelementptr inbounds nuw i8, ptr %0, i64 32
  %18 = getelementptr inbounds nuw i8, ptr %1, i64 32
  %19 = load i32, ptr %17, align 8, !tbaa !25
  %20 = load i32, ptr %18, align 8, !tbaa !25
  store i32 %20, ptr %17, align 8, !tbaa !25
  store i32 %19, ptr %18, align 8, !tbaa !25
  ret void
}